target datalayout = "e-m:e-p270:32:32-p271:32:32-p272:64:64-i64:64-i128:128-f80:128-n8:16:32:64-S128"
target triple = "x86_64-pc-linux-gnu"

; Function Attrs: nounwind uwtable
define zeroext i8 @png_gamma_8bit_correct(i32 noundef %0, i32 noundef %1) #0 {
  %3 = alloca i8, align 1
  %4 = alloca i32, align 4
  %5 = alloca i32, align 4
  %6 = alloca double, align 8
  store i32 %0, ptr %4, align 4
  store i32 %1, ptr %5, align 4
  %7 = load i32, ptr %4, align 4
  %8 = icmp ugt i32 %7, 0
  br i1 %8, label %9, label %24

9:                                                ; preds = %2
  %10 = load i32, ptr %4, align 4
  %11 = icmp ult i32 %10, 255
  br i1 %11, label %12, label %24

12:                                               ; preds = %9
  %13 = load i32, ptr %4, align 4
  %14 = sitofp i32 %13 to double
  %15 = fdiv double %14, 2.550000e+02
  %16 = load i32, ptr %5, align 4
  %17 = sitofp i32 %16 to double
  %18 = fmul double %17, 1.000000e-05
  %19 = call double @pow(double noundef %15, double noundef %18) #13
  %20 = call double @llvm.fmuladd.f64(double 2.550000e+02, double %19, double 5.000000e-01)
  %21 = call double @llvm.floor.f64(double %20)
  store double %21, ptr %6, align 8
  %22 = load double, ptr %6, align 8
  %23 = fptoui double %22 to i8
  store i8 %23, ptr %3, align 1
  br label %28

24:                                               ; preds = %9, %2
  %25 = load i32, ptr %4, align 4
  %26 = and i32 %25, 255
  %27 = trunc i32 %26 to i8
  store i8 %27, ptr %3, align 1
  br label %28

28:                                               ; preds = %24, %12
  %29 = load i8, ptr %3, align 1
  ret i8 %29
}